; ModuleID = '53/603.c'
source_filename = "53/603.c"
target datalayout = "e-m:e-p270:32:32-p271:32:32-p272:64:64-i64:64-f80:128-n8:16:32:64-S128"
target triple = "x86_64-pc-linux-gnu"

@.str = private unnamed_addr constant [3 x i8] c"%d\00", align 1
@.str.1 = private unnamed_addr constant [4 x i8] c",%d\00", align 1

; Function Attrs: noinline nounwind uwtable
define dso_local i32 @del(i32* %0, i32 %1) #0 {
  %3 = alloca i32, align 4
  %4 = alloca i32*, align 8
  %5 = alloca i32, align 4
  %6 = alloca i32*, align 8
  %7 = alloca i32*, align 8
  %8 = alloca i32, align 4
  %9 = alloca [10000 x i32], align 16
  store i32* %0, i32** %4, align 8
  store i32 %1, i32* %5, align 4
  store i32 0, i32* %8, align 4
  %10 = load i32*, i32** %4, align 8
  %11 = getelementptr inbounds i32, i32* %10, i64 1
  store i32* %11, i32** %6, align 8
  %12 = load i32*, i32** %4, align 8
  store i32* %12, i32** %7, align 8
  %13 = load i32*, i32** %4, align 8
  %14 = getelementptr inbounds i32, i32* %13, i64 0
  %15 = load i32, i32* %14, align 4
  %16 = call i32 (i8*, ...) @printf(i8* getelementptr inbounds ([3 x i8], [3 x i8]* @.str, i64 0, i64 0), i32 %15)
  br label %17

17:                                               ; preds = %57, %2
  %18 = load i32*, i32** %6, align 8
  %19 = load i32*, i32** %4, align 8
  %20 = load i32, i32* %5, align 4
  %21 = sext i32 %20 to i64
  %22 = getelementptr inbounds i32, i32* %19, i64 %21
  %23 = icmp ult i32* %18, %22
  br i1 %23, label %24, label %60

24:                                               ; preds = %17
  br label %25

25:                                               ; preds = %38, %24
  %26 = load i32*, i32** %7, align 8
  %27 = load i32*, i32** %6, align 8
  %28 = icmp ult i32* %26, %27
  br i1 %28, label %29, label %41

29:                                               ; preds = %25
  %30 = load i32*, i32** %7, align 8
  %31 = load i32, i32* %30, align 4
  %32 = load i32*, i32** %6, align 8
  %33 = load i32, i32* %32, align 4
  %34 = icmp eq i32 %31, %33
  br i1 %34, label %35, label %37

35:                                               ; preds = %29
  %36 = load i32*, i32** %4, align 8
  store i32* %36, i32** %7, align 8
  br label %41

37:                                               ; preds = %29
  br label %38

38:                                               ; preds = %37
  %39 = load i32*, i32** %7, align 8
  %40 = getelementptr inbounds i32, i32* %39, i32 1
  store i32* %40, i32** %7, align 8
  br label %25

41:                                               ; preds = %35, %25
  %42 = load i32*, i32** %7, align 8
  %43 = load i32*, i32** %6, align 8
  %44 = icmp eq i32* %42, %43
  br i1 %44, label %45, label %55

45:                                               ; preds = %41
  %46 = load i32*, i32** %6, align 8
  %47 = load i32, i32* %46, align 4
  %48 = load i32, i32* %8, align 4
  %49 = add nsw i32 %48, 1
  store i32 %49, i32* %8, align 4
  %50 = sext i32 %48 to i64
  %51 = getelementptr inbounds [10000 x i32], [10000 x i32]* %9, i64 0, i64 %50
  store i32 %47, i32* %51, align 4
  %52 = load i32*, i32** %6, align 8
  %53 = load i32, i32* %52, align 4
  %54 = call i32 (i8*, ...) @printf(i8* getelementptr inbounds ([4 x i8], [4 x i8]* @.str.1, i64 0, i64 0), i32 %53)
  br label %55

55:                                               ; preds = %45, %41
  %56 = load i32*, i32** %4, align 8
  store i32* %56, i32** %7, align 8
  br label %57

57:                                               ; preds = %55
  %58 = load i32*, i32** %6, align 8
  %59 = getelementptr inbounds i32, i32* %58, i32 1
  store i32* %59, i32** %6, align 8
  br label %17

60:                                               ; preds = %17
  %61 = load i32, i32* %3, align 4
  ret i32 %61
}

declare dso_local i32 @printf(i8*, ...) #1

; Function Attrs: noinline nounwind uwtable
define dso_local i32 @main() #0 {
  %1 = alloca i32, align 4
  %2 = alloca [10000 x i32], align 16
  %3 = alloca i32, align 4
  %4 = alloca i32*, align 8
  store i32 0, i32* %1, align 4
  %5 = getelementptr inbounds [10000 x i32], [10000 x i32]* %2, i64 0, i64 0
  store i32* %5, i32** %4, align 8
  %6 = call i32 (i8*, ...) @__isoc99_scanf(i8* getelementptr inbounds ([3 x i8], [3 x i8]* @.str, i64 0, i64 0), i32* %3)
  br label %7

7:                                                ; preds = %17, %0
  %8 = load i32*, i32** %4, align 8
  %9 = getelementptr inbounds [10000 x i32], [10000 x i32]* %2, i64 0, i64 0
  %10 = load i32, i32* %3, align 4
  %11 = sext i32 %10 to i64
  %12 = getelementptr inbounds i32, i32* %9, i64 %11
  %13 = icmp ult i32* %8, %12
  br i1 %13, label %14, label %20

14:                                               ; preds = %7
  %15 = load i32*, i32** %4, align 8
  %16 = call i32 (i8*, ...) @__isoc99_scanf(i8* getelementptr inbounds ([3 x i8], [3 x i8]* @.str, i64 0, i64 0), i32* %15)
  br label %17

17:                                               ; preds = %14
  %18 = load i32*, i32** %4, align 8
  %19 = getelementptr inbounds i32, i32* %18, i32 1
  store i32* %19, i32** %4, align 8
  br label %7

20:                                               ; preds = %7
  %21 = getelementptr inbounds [10000 x i32], [10000 x i32]* %2, i64 0, i64 0
  %22 = load i32, i32* %3, align 4
  %23 = call i32 @del(i32* %21, i32 %22)
  %24 = load i32, i32* %1, align 4
  ret i32 %24
}

declare dso_local i32 @__isoc99_scanf(i8*, ...) #1


!llvm.module.flags = !{!0}
!llvm.ident = !{!1}

!0 = !{i32 1, !"wchar_size", i32 4}
!1 = !{!"clang version 10.0.0-4ubuntu1 "}
